target datalayout = "e-m:e-p270:32:32-p271:32:32-p272:64:64-i64:64-i128:128-f80:128-n8:16:32:64-S128"
target triple = "x86_64-pc-linux-gnu"

%struct.GetByteContext = type { ptr, ptr, ptr }
%struct.RangeCoder = type { i32, i32, i32 }

; Function Attrs: alwaysinline nounwind uwtable
define internal i32 @bytestream_get_byte(ptr noundef %0) #4 {
  %2 = alloca ptr, align 8
  store ptr %0, ptr %2, align 8, !tbaa !88
  %3 = load ptr, ptr %2, align 8, !tbaa !88
  %4 = load ptr, ptr %3, align 8, !tbaa !67
  %5 = getelementptr inbounds i8, ptr %4, i64 1
  store ptr %5, ptr %3, align 8, !tbaa !67
  %6 = load ptr, ptr %2, align 8, !tbaa !88
  %7 = load ptr, ptr %6, align 8, !tbaa !67
  %8 = getelementptr inbounds i8, ptr %7, i64 -1
  %9 = getelementptr inbounds i8, ptr %8, i64 0
  %10 = load i8, ptr %9, align 1, !tbaa !76
  %11 = zext i8 %10 to i32
  ret i32 %11
}

; Function Attrs: alwaysinline nounwind uwtable
define internal i32 @bytestream2_get_byteu(ptr noundef %0) #4 {
  %2 = alloca ptr, align 8
  store ptr %0, ptr %2, align 8, !tbaa !55
  %3 = load ptr, ptr %2, align 8, !tbaa !55
  %4 = getelementptr inbounds nuw %struct.GetByteContext, ptr %3, i32 0, i32 0
  %5 = call i32 @bytestream_get_byte(ptr noundef %4)
  ret i32 %5
}

; Function Attrs: alwaysinline nounwind uwtable
define internal i32 @bytestream2_get_bytes_left(ptr noundef %0) #4 {
  %2 = alloca ptr, align 8
  store ptr %0, ptr %2, align 8, !tbaa !55
  %3 = load ptr, ptr %2, align 8, !tbaa !55
  %4 = getelementptr inbounds nuw %struct.GetByteContext, ptr %3, i32 0, i32 1
  %5 = load ptr, ptr %4, align 8, !tbaa !86
  %6 = load ptr, ptr %2, align 8, !tbaa !55
  %7 = getelementptr inbounds nuw %struct.GetByteContext, ptr %6, i32 0, i32 0
  %8 = load ptr, ptr %7, align 8, !tbaa !87
  %9 = ptrtoint ptr %5 to i64
  %10 = ptrtoint ptr %8 to i64
  %11 = sub i64 %9, %10
  %12 = trunc i64 %11 to i32
  ret i32 %12
}

; Function Attrs: nounwind uwtable
define internal i32 @decode(ptr noundef %0, ptr noundef %1, i32 noundef %2, i32 noundef %3, i32 noundef %4) #1 {
  %6 = alloca ptr, align 8
  %7 = alloca ptr, align 8
  %8 = alloca i32, align 4
  %9 = alloca i32, align 4
  %10 = alloca i32, align 4
  %11 = alloca i32, align 4
  store ptr %0, ptr %6, align 8, !tbaa !55
  store ptr %1, ptr %7, align 8, !tbaa !80
  store i32 %2, ptr %8, align 4, !tbaa !57
  store i32 %3, ptr %9, align 4, !tbaa !57
  store i32 %4, ptr %10, align 4, !tbaa !57
  %12 = load i32, ptr %8, align 4, !tbaa !57
  %13 = load ptr, ptr %7, align 8, !tbaa !80
  %14 = getelementptr inbounds nuw %struct.RangeCoder, ptr %13, i32 0, i32 1
  %15 = load i32, ptr %14, align 4, !tbaa !82
  %16 = mul i32 %12, %15
  %17 = load ptr, ptr %7, align 8, !tbaa !80
  %18 = getelementptr inbounds nuw %struct.RangeCoder, ptr %17, i32 0, i32 0
  %19 = load i32, ptr %18, align 4, !tbaa !83
  %20 = sub i32 %19, %16
  store i32 %20, ptr %18, align 4, !tbaa !83
  %21 = load i32, ptr %9, align 4, !tbaa !57
  %22 = load ptr, ptr %7, align 8, !tbaa !80
  %23 = getelementptr inbounds nuw %struct.RangeCoder, ptr %22, i32 0, i32 1
  %24 = load i32, ptr %23, align 4, !tbaa !82
  %25 = mul i32 %24, %21
  store i32 %25, ptr %23, align 4, !tbaa !82
  br label %26

26:                                               ; preds = %37, %5
  %27 = load ptr, ptr %7, align 8, !tbaa !80
  %28 = getelementptr inbounds nuw %struct.RangeCoder, ptr %27, i32 0, i32 1
  %29 = load i32, ptr %28, align 4, !tbaa !82
  %30 = icmp ult i32 %29, 16777216
  br i1 %30, label %31, label %35

31:                                               ; preds = %26
  %32 = load ptr, ptr %6, align 8, !tbaa !55
  %33 = call i32 @bytestream2_get_bytes_left(ptr noundef %32)
  %34 = icmp sgt i32 %33, 0
  br label %35

35:                                               ; preds = %31, %26
  %36 = phi i1 [ false, %26 ], [ %34, %31 ]
  br i1 %36, label %37, label %52

37:                                               ; preds = %35
  call void @llvm.lifetime.start.p0(i64 4, ptr %11) #9
  %38 = load ptr, ptr %6, align 8, !tbaa !55
  %39 = call i32 @bytestream2_get_byteu(ptr noundef %38)
  store i32 %39, ptr %11, align 4, !tbaa !57
  %40 = load ptr, ptr %7, align 8, !tbaa !80
  %41 = getelementptr inbounds nuw %struct.RangeCoder, ptr %40, i32 0, i32 0
  %42 = load i32, ptr %41, align 4, !tbaa !83
  %43 = shl i32 %42, 8
  %44 = load i32, ptr %11, align 4, !tbaa !57
  %45 = or i32 %43, %44
  %46 = load ptr, ptr %7, align 8, !tbaa !80
  %47 = getelementptr inbounds nuw %struct.RangeCoder, ptr %46, i32 0, i32 0
  store i32 %45, ptr %47, align 4, !tbaa !83
  %48 = load ptr, ptr %7, align 8, !tbaa !80
  %49 = getelementptr inbounds nuw %struct.RangeCoder, ptr %48, i32 0, i32 1
  %50 = load i32, ptr %49, align 4, !tbaa !82
  %51 = shl i32 %50, 8
  store i32 %51, ptr %49, align 4, !tbaa !82
  call void @llvm.lifetime.end.p0(i64 4, ptr %11) #9
  br label %26, !llvm.loop !93

52:                                               ; preds = %35
  ret i32 0
}