; Function Attrs: nofree norecurse nosync nounwind memory(read, argmem: readwrite, inaccessiblemem: none) uwtable
define internal noundef i32 @decode(ptr noundef captures(none) %0, ptr noundef captures(none) %1, i32 noundef %2, i32 noundef %3, i32 %4) #5 {
  %6 = getelementptr inbounds nuw i8, ptr %1, i64 4
  %7 = load i32, ptr %6, align 4, !tbaa !80
  %8 = mul i32 %7, %2
  %9 = load i32, ptr %1, align 4, !tbaa !62
  %10 = sub i32 %9, %8
  store i32 %10, ptr %1, align 4, !tbaa !62
  %11 = mul i32 %7, %3
  store i32 %11, ptr %6, align 4, !tbaa !80
  %12 = icmp ult i32 %11, 16777216
  br i1 %12, label %.lr.ph, label %.critedge

.lr.ph:                                           ; preds = %5
  %13 = getelementptr inbounds nuw i8, ptr %0, i64 8
  %14 = load ptr, ptr %13, align 8, !tbaa !52
  %15 = ptrtoint ptr %14 to i64
  %.promoted = load ptr, ptr %0, align 8, !tbaa !60
  br label %16

16:                                               ; preds = %.lr.ph, %23
  %17 = phi i32 [ %10, %.lr.ph ], [ %28, %23 ]
  %18 = phi ptr [ %.promoted, %.lr.ph ], [ %24, %23 ]
  %storemerge11 = phi i32 [ %11, %.lr.ph ], [ %29, %23 ]
  %19 = ptrtoint ptr %18 to i64
  %20 = sub i64 %15, %19
  %21 = trunc i64 %20 to i32
  %22 = icmp sgt i32 %21, 0
  br i1 %22, label %23, label %.critedge

23:                                               ; preds = %16
  %24 = getelementptr inbounds nuw i8, ptr %18, i64 1
  store ptr %24, ptr %0, align 8, !tbaa !60
  %25 = load i8, ptr %18, align 1, !tbaa !53
  %26 = zext i8 %25 to i32
  %27 = shl i32 %17, 8
  %28 = or disjoint i32 %27, %26
  store i32 %28, ptr %1, align 4, !tbaa !62
  %29 = shl nuw i32 %storemerge11, 8
  store i32 %29, ptr %6, align 4, !tbaa !80
  %30 = icmp ult i32 %storemerge11, 65536
  br i1 %30, label %16, label %.critedge, !llvm.loop !124

.critedge:                                        ; preds = %16, %23, %5
  ret i32 0
}